target datalayout = "e-m:e-p270:32:32-p271:32:32-p272:64:64-i64:64-i128:128-f80:128-n8:16:32:64-S128"
target triple = "x86_64-unknown-linux-gnu"

%struct.xdr_netobj = type { i32, ptr }

; Function Attrs: fn_ret_thunk_extern nounwind null_pointer_is_valid
define dso_local i32 @gss_krb5_verify_mic_v2(ptr nocapture noundef readonly %0, ptr noundef %1, ptr nocapture noundef readonly %2) local_unnamed_addr #0 align 16 {
  %4 = alloca [24 x i8], align 16
  %5 = alloca %struct.xdr_netobj, align 8
  %6 = load i32, ptr %0, align 8
  %7 = icmp eq i32 %6, 0
  %8 = select i1 %7, i64 80, i64 72
  %9 = getelementptr inbounds i8, ptr %0, i64 %8
  %10 = load ptr, ptr %9, align 8
  call void @llvm.lifetime.start.p0(i64 24, ptr nonnull %4) #5
  call void @llvm.memset.p0.i64(ptr noundef nonnull align 16 dereferenceable(24) %4, i8 0, i64 24, i1 false), !annotation !5
  call void @llvm.lifetime.start.p0(i64 16, ptr nonnull %5) #5
  call void @llvm.memset.p0.i64(ptr noundef nonnull align 8 dereferenceable(16) %5, i8 0, i64 16, i1 false), !annotation !5
  %11 = getelementptr inbounds i8, ptr %0, i64 16
  %12 = load ptr, ptr %11, align 8
  %13 = getelementptr inbounds i8, ptr %12, i64 44
  %14 = load i32, ptr %13, align 4
  store i32 %14, ptr %5, align 8
  %15 = getelementptr inbounds i8, ptr %5, i64 8
  store ptr %4, ptr %15, align 8
  %16 = getelementptr inbounds i8, ptr %2, i64 8
  %17 = load ptr, ptr %16, align 8
  %18 = load i16, ptr %17, align 1
  %19 = icmp eq i16 %18, 1028
  br i1 %19, label %20, label %56

20:                                               ; preds = %3
  %21 = getelementptr i8, ptr %17, i64 2
  %22 = load i8, ptr %21, align 1
  %23 = icmp eq i32 %6, 0
  %24 = and i8 %22, 1
  %25 = icmp eq i8 %24, 0
  %26 = xor i1 %23, %25
  br i1 %26, label %56, label %27

27:                                               ; preds = %20
  %28 = and i8 %22, 2
  %29 = icmp eq i8 %28, 0
  br i1 %29, label %33, label %56

30:                                               ; preds = %33
  %31 = add nuw nsw i64 %34, 1
  %32 = icmp eq i64 %31, 8
  br i1 %32, label %38, label %33, !llvm.loop !6

33:                                               ; preds = %30, %27
  %34 = phi i64 [ %31, %30 ], [ 3, %27 ]
  %35 = getelementptr i8, ptr %17, i64 %34
  %36 = load i8, ptr %35, align 1
  %37 = icmp eq i8 %36, -1
  br i1 %37, label %30, label %56

38:                                               ; preds = %30
  %39 = call i32 @gss_krb5_checksum(ptr noundef %10, ptr noundef %17, i32 noundef 16, ptr noundef %1, i32 noundef 0, ptr noundef nonnull %5) #5
  %40 = icmp eq i32 %39, 0
  br i1 %40, label %41, label %56

41:                                               ; preds = %38
  %42 = load ptr, ptr %15, align 8
  %43 = getelementptr i8, ptr %17, i64 16
  %44 = load ptr, ptr %11, align 8
  %45 = getelementptr inbounds i8, ptr %44, i64 44
  %46 = load i32, ptr %45, align 4
  %47 = zext i32 %46 to i64
  %48 = call i32 @bcmp(ptr %42, ptr %43, i64 %47)
  %49 = icmp eq i32 %48, 0
  br i1 %49, label %50, label %56

50:                                               ; preds = %41
  %51 = call i64 @ktime_get_real_seconds() #5
  %52 = getelementptr inbounds i8, ptr %0, i64 184
  %53 = load i64, ptr %52, align 8
  %54 = icmp sgt i64 %51, %53
  %55 = select i1 %54, i32 786432, i32 0
  br label %56

56:                                               ; preds = %50, %41, %38, %33, %27, %20, %3
  %57 = phi i32 [ 589824, %3 ], [ 393216, %20 ], [ 851968, %27 ], [ 851968, %38 ], [ 393216, %41 ], [ %55, %50 ], [ 589824, %33 ]
  call void @llvm.lifetime.end.p0(i64 16, ptr nonnull %5) #5
  call void @llvm.lifetime.end.p0(i64 24, ptr nonnull %4) #5
  ret i32 %57
}

; Function Attrs: nocallback nofree nosync nounwind willreturn memory(argmem: readwrite)
declare void @llvm.lifetime.start.p0(i64 immarg, ptr nocapture) #1

; Function Attrs: nocallback nofree nounwind willreturn memory(argmem: write)
declare void @llvm.memset.p0.i64(ptr nocapture writeonly, i8, i64, i1 immarg) #2

; Function Attrs: null_pointer_is_valid
declare dso_local i32 @gss_krb5_checksum(ptr noundef, ptr noundef, i32 noundef, ptr noundef, i32 noundef, ptr noundef) local_unnamed_addr #3

; Function Attrs: null_pointer_is_valid
declare dso_local i64 @ktime_get_real_seconds() local_unnamed_addr #3

; Function Attrs: nocallback nofree nosync nounwind willreturn memory(argmem: readwrite)
declare void @llvm.lifetime.end.p0(i64 immarg, ptr nocapture) #1

; Function Attrs: nofree nounwind willreturn memory(argmem: read)
declare i32 @bcmp(ptr nocapture, ptr nocapture, i64) local_unnamed_addr #4


!llvm.module.flags = !{!0, !1, !2, !3, !4}

!0 = !{i32 1, !"wchar_size", i32 2}
!1 = !{i32 8, !"cf-protection-branch", i32 1}
!2 = !{i32 4, !"function_return_thunk_extern", i32 1}
!3 = !{i32 4, !"indirect_branch_cs_prefix", i32 1}
!4 = !{i32 4, !"SkipRaxSetup", i32 1}
!5 = !{!"auto-init"}
!6 = distinct !{!6, !7, !8}
!7 = !{!"llvm.loop.mustprogress"}
!8 = !{!"llvm.loop.unroll.disable"}
